(dp1
S'files'
p2
(dp3
S'_user_youngdun_491WebDev_cse491_env_lib_python2_7_site-packages_jinja2_nodes'
p4
(dp5
S'index'
p6
(dp7
S'html_filename'
p8
S'_user_youngdun_491WebDev_cse491_env_lib_python2_7_site-packages_jinja2_nodes.html'
p9
sS'name'
p10
S'/user/youngdun/491WebDev/cse491.env/lib/python2.7/site-packages/jinja2/nodes'
p11
sS'nums'
p12
ccopy_reg
_reconstructor
p13
(ccoverage.results
Numbers
p14
c__builtin__
object
p15
NtRp16
(dp17
S'n_files'
p18
I1
sS'n_branches'
p19
I0
sS'n_statements'
p20
I423
sS'n_excluded'
p21
I0
sS'n_partial_branches'
p22
I0
sS'n_missing'
p23
I180
sS'n_missing_branches'
p24
I0
sbssS'hash'
p25
S"\xe1\xfa\x91y'\xc1\x0e/\xbf\x18?a\xde:Ku"
p26
ssS'_user_youngdun_491WebDev_cse491_env_lib_python2_7_site-packages_markupsafe__compat'
p27
(dp28
g6
(dp29
g8
S'_user_youngdun_491WebDev_cse491_env_lib_python2_7_site-packages_markupsafe__compat.html'
p30
sg10
S'/user/youngdun/491WebDev/cse491.env/lib/python2.7/site-packages/markupsafe/_compat'
p31
sg12
g13
(g14
g15
NtRp32
(dp33
g18
I1
sg19
I0
sg20
I12
sg21
I0
sg22
I0
sg23
I4
sg24
I0
sbssg25
S'\x8c\xb6\xc1\xcd\x85\x93\x83\xddWpn\xaaf\x8a2,'
p34
ssS'_user_youngdun_491WebDev_cse491_env_lib_python2_7_site-packages_quixote___init__'
p35
(dp36
g6
(dp37
g8
S'_user_youngdun_491WebDev_cse491_env_lib_python2_7_site-packages_quixote___init__.html'
p38
sg10
S'/user/youngdun/491WebDev/cse491.env/lib/python2.7/site-packages/quixote/__init__'
p39
sg12
g13
(g14
g15
NtRp40
(dp41
g18
I1
sg19
I0
sg20
I5
sg21
I0
sg22
I0
sg23
I1
sg24
I0
sbssg25
S'\x10X\x02\x0bT2\xb8\x1ap8\x15j\x7f\xcb(`'
p42
ssS'app'
p43
(dp44
g6
(dp45
g8
S'app.html'
p46
sg10
g43
sg12
g13
(g14
g15
NtRp47
(dp48
g18
I1
sg19
I0
sg20
I89
sg21
I0
sg22
I0
sg23
I0
sg24
I0
sbssg25
S'\x08\xb4\x0c\xdb\xf7 \xd4yp\x95\xac\x9bz\x0cX\xcd'
p49
ssS'_user_youngdun_491WebDev_cse491_env_lib_python2_7_site-packages_jinja2_filters'
p50
(dp51
g6
(dp52
g8
S'_user_youngdun_491WebDev_cse491_env_lib_python2_7_site-packages_jinja2_filters.html'
p53
sg10
S'/user/youngdun/491WebDev/cse491.env/lib/python2.7/site-packages/jinja2/filters'
p54
sg12
g13
(g14
g15
NtRp55
(dp56
g18
I1
sg19
I0
sg20
I343
sg21
I0
sg22
I0
sg23
I265
sg24
I0
sbssg25
S'\xef#\xc6\xad\x92\x96v^M\x9d\xf0\xfeR\xcal\xc5'
p57
ssS'_user_youngdun_491WebDev_cse491_env_lib_python2_7_site-packages_jinja2_compiler'
p58
(dp59
g6
(dp60
g8
S'_user_youngdun_491WebDev_cse491_env_lib_python2_7_site-packages_jinja2_compiler.html'
p61
sg10
S'/user/youngdun/491WebDev/cse491.env/lib/python2.7/site-packages/jinja2/compiler'
p62
sg12
g13
(g14
g15
NtRp63
(dp64
g18
I1
sg19
I0
sg20
I1030
sg21
I0
sg22
I0
sg23
I660
sg24
I0
sbssg25
S'\xe4C\xd7lZ\ntd\x1d\xd8\xb7\xa8\x08\xaf,('
p65
ssS'_user_youngdun_491WebDev_cse491_env_lib_python2_7_site-packages_nose_plugins_errorclass'
p66
(dp67
g6
(dp68
g8
S'_user_youngdun_491WebDev_cse491_env_lib_python2_7_site-packages_nose_plugins_errorclass.html'
p69
sg10
S'/user/youngdun/491WebDev/cse491.env/lib/python2.7/site-packages/nose/plugins/errorclass'
p70
sg12
g13
(g14
g15
NtRp71
(dp72
g18
I1
sg19
I0
sg20
I65
sg21
I0
sg22
I0
sg23
I59
sg24
I0
sbssg25
S'4\x13v=\xdeK!\x190-\xf5\x00\xcd\n\x80_'
p73
ssS'_user_youngdun_491WebDev_cse491_env_lib_python2_7_site-packages_jinja2_visitor'
p74
(dp75
g6
(dp76
g8
S'_user_youngdun_491WebDev_cse491_env_lib_python2_7_site-packages_jinja2_visitor.html'
p77
sg10
S'/user/youngdun/491WebDev/cse491.env/lib/python2.7/site-packages/jinja2/visitor'
p78
sg12
g13
(g14
g15
NtRp79
(dp80
g18
I1
sg19
I0
sg20
I40
sg21
I0
sg22
I0
sg23
I8
sg24
I0
sbssg25
S'+&9m\xe7\x0f\xabq\x87\xaf;EL\x84#i'
p81
ssS'_user_youngdun_491WebDev_cse491_env_lib_python2_7_site-packages_jinja2_lexer'
p82
(dp83
g6
(dp84
g8
S'_user_youngdun_491WebDev_cse491_env_lib_python2_7_site-packages_jinja2_lexer.html'
p85
sg10
S'/user/youngdun/491WebDev/cse491.env/lib/python2.7/site-packages/jinja2/lexer'
p86
sg12
g13
(g14
g15
NtRp87
(dp88
g18
I1
sg19
I0
sg20
I346
sg21
I0
sg22
I0
sg23
I99
sg24
I0
sbssg25
S'\x9b\xc9\xd8\x80\xf2\xe1\xcc\xcb\xba@\x82D\x0b:\xd2:'
p89
ssS'_user_youngdun_491WebDev_cse491_env_lib_python2_7_site-packages_nose_plugins_capture'
p90
(dp91
g6
(dp92
g8
S'_user_youngdun_491WebDev_cse491_env_lib_python2_7_site-packages_nose_plugins_capture.html'
p93
sg10
S'/user/youngdun/491WebDev/cse491.env/lib/python2.7/site-packages/nose/plugins/capture'
p94
sg12
g13
(g14
g15
NtRp95
(dp96
g18
I1
sg19
I0
sg20
I66
sg21
I0
sg22
I0
sg23
I58
sg24
I0
sbssg25
S'A\x0b\x9b\xf8\x01]\x89\xc4!FIjJ\xc0\x9a\xd5'
p97
ssS'_user_youngdun_491WebDev_cse491_env_lib_python2_7_site-packages_jinja2_optimizer'
p98
(dp99
g6
(dp100
g8
S'_user_youngdun_491WebDev_cse491_env_lib_python2_7_site-packages_jinja2_optimizer.html'
p101
sg10
S'/user/youngdun/491WebDev/cse491.env/lib/python2.7/site-packages/jinja2/optimizer'
p102
sg12
g13
(g14
g15
NtRp103
(dp104
g18
I1
sg19
I0
sg20
I31
sg21
I0
sg22
I0
sg23
I18
sg24
I0
sbssg25
S'gS\xcb\xe4\xa2\xf5}\x92\xfc\r\x8cd$\x84\x08T'
p105
ssS'_user_youngdun_491WebDev_cse491_env_lib_python2_7_site-packages_jinja2_bccache'
p106
(dp107
g6
(dp108
g8
S'_user_youngdun_491WebDev_cse491_env_lib_python2_7_site-packages_jinja2_bccache.html'
p109
sg10
S'/user/youngdun/491WebDev/cse491.env/lib/python2.7/site-packages/jinja2/bccache'
p110
sg12
g13
(g14
g15
NtRp111
(dp112
g18
I1
sg19
I0
sg20
I143
sg21
I0
sg22
I0
sg23
I101
sg24
I0
sbssg25
S"\xc5\x0f'\xccc\xaf\xd1=|\xeey\xd9&\xf3>\x92"
p113
ssS'imageapp___init__'
p114
(dp115
g6
(dp116
g8
S'imageapp___init__.html'
p117
sg10
S'imageapp/__init__'
p118
sg12
g13
(g14
g15
NtRp119
(dp120
g18
I1
sg19
I0
sg20
I13
sg21
I0
sg22
I0
sg23
I7
sg24
I0
sbssg25
S"\xbf#\xc7\x8e\x02;>\xd1l\xe8'\xa7\xad\xd6V\xcd"
p121
ssS'_user_youngdun_491WebDev_cse491_env_lib_python2_7_site-packages_nose_result'
p122
(dp123
g6
(dp124
g8
S'_user_youngdun_491WebDev_cse491_env_lib_python2_7_site-packages_nose_result.html'
p125
sg10
S'/user/youngdun/491WebDev/cse491.env/lib/python2.7/site-packages/nose/result'
p126
sg12
g13
(g14
g15
NtRp127
(dp128
g18
I1
sg19
I0
sg20
I131
sg21
I0
sg22
I0
sg23
I119
sg24
I0
sbssg25
S'\xbfT\xf7\xbd\xe5\x8b\xec~E\x94\xba\xbd\xd9\xcc\x84\x97'
p129
ssS'_user_youngdun_491WebDev_cse491_env_lib_python2_7_site-packages_quixote_http_response'
p130
(dp131
g6
(dp132
g8
S'_user_youngdun_491WebDev_cse491_env_lib_python2_7_site-packages_quixote_http_response.html'
p133
sg10
S'/user/youngdun/491WebDev/cse491.env/lib/python2.7/site-packages/quixote/http_response'
p134
sg12
g13
(g14
g15
NtRp135
(dp136
g18
I1
sg19
I0
sg20
I231
sg21
I0
sg22
I0
sg23
I188
sg24
I0
sbssg25
S'\x84\xcc(zz\xcf\xf6\x1e%\x84\xd09\xe1\xe1O\x02'
p137
ssS'_user_youngdun_491WebDev_cse491_env_lib_python2_7_site-packages_quixote_http_request'
p138
(dp139
g6
(dp140
g8
S'_user_youngdun_491WebDev_cse491_env_lib_python2_7_site-packages_quixote_http_request.html'
p141
sg10
S'/user/youngdun/491WebDev/cse491.env/lib/python2.7/site-packages/quixote/http_request'
p142
sg12
g13
(g14
g15
NtRp143
(dp144
g18
I1
sg19
I0
sg20
I425
sg21
I0
sg22
I0
sg23
I353
sg24
I0
sbssg25
S'\x0c\xd7\xce\xcb\xcbN\xb4,i\x83S@\xd0,\x8b\x90'
p145
ssS'_user_youngdun_491WebDev_cse491_env_lib_python2_7_site-packages_jinja2__compat'
p146
(dp147
g6
(dp148
g8
S'_user_youngdun_491WebDev_cse491_env_lib_python2_7_site-packages_jinja2__compat.html'
p149
sg10
S'/user/youngdun/491WebDev/cse491.env/lib/python2.7/site-packages/jinja2/_compat'
p150
sg12
g13
(g14
g15
NtRp151
(dp152
g18
I1
sg19
I0
sg20
I98
sg21
I0
sg22
I0
sg23
I35
sg24
I0
sbssg25
S'@u\t\x99\xbd\xbah\xdc\xa2\x9a\x18b\x12T\x89\x93'
p153
ssS'_user_youngdun_491WebDev_cse491_env_lib_python2_7_site-packages_quixote_sendmail'
p154
(dp155
g6
(dp156
g8
S'_user_youngdun_491WebDev_cse491_env_lib_python2_7_site-packages_quixote_sendmail.html'
p157
sg10
S'/user/youngdun/491WebDev/cse491.env/lib/python2.7/site-packages/quixote/sendmail'
p158
sg12
g13
(g14
g15
NtRp159
(dp160
g18
I1
sg19
I0
sg20
I88
sg21
I0
sg22
I0
sg23
I74
sg24
I0
sbssg25
S'w\t\xdfM\x8f@\xc9\xc7\xa9\x01\x16y\x0f\xf5\xb4\xc6'
p161
ssS'_user_youngdun_491WebDev_cse491_env_lib_python2_7_site-packages_jinja2_tests'
p162
(dp163
g6
(dp164
g8
S'_user_youngdun_491WebDev_cse491_env_lib_python2_7_site-packages_jinja2_tests.html'
p165
sg10
S'/user/youngdun/491WebDev/cse491.env/lib/python2.7/site-packages/jinja2/tests'
p166
sg12
g13
(g14
g15
NtRp167
(dp168
g18
I1
sg19
I0
sg20
I47
sg21
I0
sg22
I0
sg23
I24
sg24
I0
sbssg25
S'\xb1[}x+R\x19\xd1\xe4\xc4\xf3\xcb"5\xe8\xfd'
p169
ssS'_user_youngdun_491WebDev_cse491_env_lib_python2_7_site-packages_nose_suite'
p170
(dp171
g6
(dp172
g8
S'_user_youngdun_491WebDev_cse491_env_lib_python2_7_site-packages_nose_suite.html'
p173
sg10
S'/user/youngdun/491WebDev/cse491.env/lib/python2.7/site-packages/nose/suite'
p174
sg12
g13
(g14
g15
NtRp175
(dp176
g18
I1
sg19
I0
sg20
I394
sg21
I0
sg22
I0
sg23
I232
sg24
I0
sbssg25
S'\xf8\xe1a\x810\xfb\xc6\xd7\x89\x82\x10\xc2\xeb\xce\xcc5'
p177
ssS'imageapp_root'
p178
(dp179
g6
(dp180
g8
S'imageapp_root.html'
p181
sg10
S'imageapp/root'
p182
sg12
g13
(g14
g15
NtRp183
(dp184
g18
I1
sg19
I0
sg20
I25
sg21
I0
sg22
I0
sg23
I15
sg24
I0
sbssg25
S'K\t\x9d \x1b\xf2\xa0VZ\x04\xc6\xde\x7f\xf8\xb7j'
p185
ssS'_user_youngdun_491WebDev_cse491_env_lib_python2_7_site-packages_quixote_html___init__'
p186
(dp187
g6
(dp188
g8
S'_user_youngdun_491WebDev_cse491_env_lib_python2_7_site-packages_quixote_html___init__.html'
p189
sg10
S'/user/youngdun/491WebDev/cse491.env/lib/python2.7/site-packages/quixote/html/__init__'
p190
sg12
g13
(g14
g15
NtRp191
(dp192
g18
I1
sg19
I0
sg20
I53
sg21
I0
sg22
I0
sg23
I38
sg24
I0
sbssg25
S'\x81\xf1!\xca\x88n\xe0kTu\x0e\xa9\xa4\x16,\x88'
p193
ssS'_user_youngdun_491WebDev_cse491_env_lib_python2_7_site-packages_jinja2_environment'
p194
(dp195
g6
(dp196
g8
S'_user_youngdun_491WebDev_cse491_env_lib_python2_7_site-packages_jinja2_environment.html'
p197
sg10
S'/user/youngdun/491WebDev/cse491.env/lib/python2.7/site-packages/jinja2/environment'
p198
sg12
g13
(g14
g15
NtRp199
(dp200
g18
I1
sg19
I0
sg20
I488
sg21
I0
sg22
I0
sg23
I295
sg24
I0
sbssg25
S'\xe8\x1e\xf0^\xac\xf6\x9c"\xde\xa5e")\x15J\xae'
p201
ssS'_user_youngdun_491WebDev_cse491_env_lib_python2_7_site-packages_quixote_util'
p202
(dp203
g6
(dp204
g8
S'_user_youngdun_491WebDev_cse491_env_lib_python2_7_site-packages_quixote_util.html'
p205
sg10
S'/user/youngdun/491WebDev/cse491.env/lib/python2.7/site-packages/quixote/util'
p206
sg12
g13
(g14
g15
NtRp207
(dp208
g18
I1
sg19
I0
sg20
I200
sg21
I0
sg22
I0
sg23
I162
sg24
I0
sbssg25
S'd\x15 x\xb5\x1f\xb8\xf3\x06\xe0\x89#\xc5\xf7\xc6 '
p209
ssS'_user_youngdun_491WebDev_cse491_env_lib_python2_7_site-packages_quixote_directory'
p210
(dp211
g6
(dp212
g8
S'_user_youngdun_491WebDev_cse491_env_lib_python2_7_site-packages_quixote_directory.html'
p213
sg10
S'/user/youngdun/491WebDev/cse491.env/lib/python2.7/site-packages/quixote/directory'
p214
sg12
g13
(g14
g15
NtRp215
(dp216
g18
I1
sg19
I0
sg20
I88
sg21
I0
sg22
I0
sg23
I51
sg24
I0
sbssg25
S'\x8cS\x05\xed]\x10i\xee\xab\x9f\x05\xa5\xb7\x9a4\x01'
p217
ssS'_user_youngdun_491WebDev_cse491_env_lib_python2_7_site-packages_jinja2_exceptions'
p218
(dp219
g6
(dp220
g8
S'_user_youngdun_491WebDev_cse491_env_lib_python2_7_site-packages_jinja2_exceptions.html'
p221
sg10
S'/user/youngdun/491WebDev/cse491.env/lib/python2.7/site-packages/jinja2/exceptions'
p222
sg12
g13
(g14
g15
NtRp223
(dp224
g18
I1
sg19
I0
sg20
I70
sg21
I0
sg22
I0
sg23
I47
sg24
I0
sbssg25
S'\xf3z\xf9\xb0i}\xb8\xf8a\x05\xda\n?\x1c\xfb\x1d'
p225
ssS'_user_youngdun_491WebDev_cse491_env_lib_python2_7_site-packages_nose_plugins_cover'
p226
(dp227
g6
(dp228
g8
S'_user_youngdun_491WebDev_cse491_env_lib_python2_7_site-packages_nose_plugins_cover.html'
p229
sg10
S'/user/youngdun/491WebDev/cse491.env/lib/python2.7/site-packages/nose/plugins/cover'
p230
sg12
g13
(g14
g15
NtRp231
(dp232
g18
I1
sg19
I0
sg20
I138
sg21
I0
sg22
I0
sg23
I134
sg24
I0
sbssg25
S'WX\x92{\x8f\x10\xee\xbe\xb6d\xc4M\xe3O\x07\x91'
p233
ssS'_user_youngdun_491WebDev_cse491_env_lib_python2_7_site-packages_nose_importer'
p234
(dp235
g6
(dp236
g8
S'_user_youngdun_491WebDev_cse491_env_lib_python2_7_site-packages_nose_importer.html'
p237
sg10
S'/user/youngdun/491WebDev/cse491.env/lib/python2.7/site-packages/nose/importer'
p238
sg12
g13
(g14
g15
NtRp239
(dp240
g18
I1
sg19
I0
sg20
I101
sg21
I0
sg22
I0
sg23
I51
sg24
I0
sbssg25
S'\xfc\xd2\xfb\xc3\x0cd\x08b\xc3/\x1f\x97\t\x19\xe3\x01'
p241
ssS'_user_youngdun_491WebDev_cse491_env_lib_python2_7_site-packages_nose_plugins_logcapture'
p242
(dp243
g6
(dp244
g8
S'_user_youngdun_491WebDev_cse491_env_lib_python2_7_site-packages_nose_plugins_logcapture.html'
p245
sg10
S'/user/youngdun/491WebDev/cse491.env/lib/python2.7/site-packages/nose/plugins/logcapture'
p246
sg12
g13
(g14
g15
NtRp247
(dp248
g18
I1
sg19
I0
sg20
I125
sg21
I0
sg22
I0
sg23
I114
sg24
I0
sbssg25
S'\xccN\xe6\x86\x88`\x1e\xb7\xeb\xf4\x14^\x8f\xa5-\xf2'
p249
ssS'_user_youngdun_491WebDev_cse491_env_lib_python2_7_site-packages_jinja2_parser'
p250
(dp251
g6
(dp252
g8
S'_user_youngdun_491WebDev_cse491_env_lib_python2_7_site-packages_jinja2_parser.html'
p253
sg10
S'/user/youngdun/491WebDev/cse491.env/lib/python2.7/site-packages/jinja2/parser'
p254
sg12
g13
(g14
g15
NtRp255
(dp256
g18
I1
sg19
I0
sg20
I646
sg21
I0
sg22
I0
sg23
I400
sg24
I0
sbssg25
S'\x9e1\xac0\x84\xbb\xf9\x82s\xf9X\xeb;I\xa9\xc8'
p257
ssS'_user_youngdun_491WebDev_cse491_env_lib_python2_7_site-packages_nose_core'
p258
(dp259
g6
(dp260
g8
S'_user_youngdun_491WebDev_cse491_env_lib_python2_7_site-packages_nose_core.html'
p261
sg10
S'/user/youngdun/491WebDev/cse491.env/lib/python2.7/site-packages/nose/core'
p262
sg12
g13
(g14
g15
NtRp263
(dp264
g18
I1
sg19
I0
sg20
I162
sg21
I0
sg22
I0
sg23
I140
sg24
I0
sbssg25
S'\x92\xc0\x98\xbb\xb98\xd2F\xc0\x06p\xc9\xd3\xe5\x1cP'
p265
ssS'_user_youngdun_491WebDev_cse491_env_lib_python2_7_site-packages_nose_pyversion'
p266
(dp267
g6
(dp268
g8
S'_user_youngdun_491WebDev_cse491_env_lib_python2_7_site-packages_nose_pyversion.html'
p269
sg10
S'/user/youngdun/491WebDev/cse491.env/lib/python2.7/site-packages/nose/pyversion'
p270
sg12
g13
(g14
g15
NtRp271
(dp272
g18
I1
sg19
I0
sg20
I92
sg21
I0
sg22
I0
sg23
I88
sg24
I0
sbssg25
S'\xca^\x90\xcb%\xe3\xfdu\xf3\x85\x02?C\re\xa7'
p273
ssS'imageapp_image'
p274
(dp275
g6
(dp276
g8
S'imageapp_image.html'
p277
sg10
S'imageapp/image'
p278
sg12
g13
(g14
g15
NtRp279
(dp280
g18
I1
sg19
I0
sg20
I12
sg21
I0
sg22
I0
sg23
I8
sg24
I0
sbssg25
S'iC\xb65\x0f\xbeJ\xf2\xe0\\\xfd\x9c\xe8!\xe5D'
p281
ssS'_user_youngdun_491WebDev_cse491_env_lib_python2_7_site-packages_nose_loader'
p282
(dp283
g6
(dp284
g8
S'_user_youngdun_491WebDev_cse491_env_lib_python2_7_site-packages_nose_loader.html'
p285
sg10
S'/user/youngdun/491WebDev/cse491.env/lib/python2.7/site-packages/nose/loader'
p286
sg12
g13
(g14
g15
NtRp287
(dp288
g18
I1
sg19
I0
sg20
I351
sg21
I0
sg22
I0
sg23
I229
sg24
I0
sbssg25
S'\xb3G\x0f\x9d\x91t\xb5\xae#F`{\x99\x17\xbb\x19'
p289
ssS'imageapp_html'
p290
(dp291
g6
(dp292
g8
S'imageapp_html.html'
p293
sg10
S'imageapp/html'
p294
sg12
g13
(g14
g15
NtRp295
(dp296
g18
I1
sg19
I0
sg20
I15
sg21
I0
sg22
I0
sg23
I8
sg24
I0
sbssg25
S'\x93\xec\x1en\xcetP\x1cT\xdd\xb2\xfc\xa8\x9cQ\t'
p297
ssS'_user_youngdun_491WebDev_cse491_env_lib_python2_7_site-packages_jinja2_utils'
p298
(dp299
g6
(dp300
g8
S'_user_youngdun_491WebDev_cse491_env_lib_python2_7_site-packages_jinja2_utils.html'
p301
sg10
S'/user/youngdun/491WebDev/cse491.env/lib/python2.7/site-packages/jinja2/utils'
p302
sg12
g13
(g14
g15
NtRp303
(dp304
g18
I1
sg19
I0
sg20
I263
sg21
I0
sg22
I0
sg23
I163
sg24
I0
sbssg25
S'9\xb9\x19\xe5\x84/|\xea\x85\xf5\x1e\xc4 \xdd\xc3\xc8'
p305
ssS'_user_youngdun_491WebDev_cse491_env_lib_python2_7_site-packages_nose_selector'
p306
(dp307
g6
(dp308
g8
S'_user_youngdun_491WebDev_cse491_env_lib_python2_7_site-packages_nose_selector.html'
p309
sg10
S'/user/youngdun/491WebDev/cse491.env/lib/python2.7/site-packages/nose/selector'
p310
sg12
g13
(g14
g15
NtRp311
(dp312
g18
I1
sg19
I0
sg20
I134
sg21
I0
sg22
I0
sg23
I65
sg24
I0
sbssg25
S'\xe7\xbc\x88\x99\xf7\xb3an\xe6\x9c|\xa1\xb6b\x8er'
p313
ssS'_user_youngdun_491WebDev_cse491_env_lib_python2_7_site-packages_nose_util'
p314
(dp315
g6
(dp316
g8
S'_user_youngdun_491WebDev_cse491_env_lib_python2_7_site-packages_nose_util.html'
p317
sg10
S'/user/youngdun/491WebDev/cse491.env/lib/python2.7/site-packages/nose/util'
p318
sg12
g13
(g14
g15
NtRp319
(dp320
g18
I1
sg19
I0
sg20
I341
sg21
I0
sg22
I0
sg23
I273
sg24
I0
sbssg25
S'\xbd\xd7X\x16\x0e\xce\x16l\xd3\x94\xc34w\x80|\xf7'
p321
ssS'_user_youngdun_491WebDev_cse491_env_lib_python2_7_site-packages_quixote_logger'
p322
(dp323
g6
(dp324
g8
S'_user_youngdun_491WebDev_cse491_env_lib_python2_7_site-packages_quixote_logger.html'
p325
sg10
S'/user/youngdun/491WebDev/cse491.env/lib/python2.7/site-packages/quixote/logger'
p326
sg12
g13
(g14
g15
NtRp327
(dp328
g18
I1
sg19
I0
sg20
I46
sg21
I0
sg22
I0
sg23
I32
sg24
I0
sbssg25
S'Qa\xdb\x8562\x8f\x8f4\xccAA\x90y\xaf+'
p329
ssS'_user_youngdun_491WebDev_cse491_env_lib_python2_7_site-packages_jinja2___init__'
p330
(dp331
g6
(dp332
g8
S'_user_youngdun_491WebDev_cse491_env_lib_python2_7_site-packages_jinja2___init__.html'
p333
sg10
S'/user/youngdun/491WebDev/cse491.env/lib/python2.7/site-packages/jinja2/__init__'
p334
sg12
g13
(g14
g15
NtRp335
(dp336
g18
I1
sg19
I0
sg20
I11
sg21
I0
sg22
I0
sg23
I0
sg24
I0
sbssg25
S'\xc2$\x8d\x9e.l\x1b;A\t,G\xf5\xf12\x91'
p337
ssS'_user_youngdun_491WebDev_cse491_env_lib_python2_7_site-packages_jinja2_runtime'
p338
(dp339
g6
(dp340
g8
S'_user_youngdun_491WebDev_cse491_env_lib_python2_7_site-packages_jinja2_runtime.html'
p341
sg10
S'/user/youngdun/491WebDev/cse491.env/lib/python2.7/site-packages/jinja2/runtime'
p342
sg12
g13
(g14
g15
NtRp343
(dp344
g18
I1
sg19
I0
sg20
I291
sg21
I0
sg22
I0
sg23
I175
sg24
I0
sbssg25
S'P\xedP6\xe1\x01Q\xf6zG\xbd\x077If\xf4'
p345
ssS'_user_youngdun_491WebDev_cse491_env_lib_python2_7_site-packages_quixote_publish'
p346
(dp347
g6
(dp348
g8
S'_user_youngdun_491WebDev_cse491_env_lib_python2_7_site-packages_quixote_publish.html'
p349
sg10
S'/user/youngdun/491WebDev/cse491.env/lib/python2.7/site-packages/quixote/publish'
p350
sg12
g13
(g14
g15
NtRp351
(dp352
g18
I1
sg19
I0
sg20
I176
sg21
I0
sg22
I0
sg23
I132
sg24
I0
sbssg25
S'\xbf\x98T\xf8{m\x06E\xbd)\xb6\xb4h\xb7dC'
p353
ssS'_user_youngdun_491WebDev_cse491_env_lib_python2_7_site-packages_nose_proxy'
p354
(dp355
g6
(dp356
g8
S'_user_youngdun_491WebDev_cse491_env_lib_python2_7_site-packages_nose_proxy.html'
p357
sg10
S'/user/youngdun/491WebDev/cse491.env/lib/python2.7/site-packages/nose/proxy'
p358
sg12
g13
(g14
g15
NtRp359
(dp360
g18
I1
sg19
I0
sg20
I108
sg21
I0
sg22
I0
sg23
I75
sg24
I0
sbssg25
S'\xa8?\x17\xc2j\xad\x13\xe7\x98w\xd3~\xe8\n\xc1\xe2'
p361
ssS'_user_youngdun_491WebDev_cse491_env_lib_python2_7_site-packages_quixote_errors'
p362
(dp363
g6
(dp364
g8
S'_user_youngdun_491WebDev_cse491_env_lib_python2_7_site-packages_quixote_errors.html'
p365
sg10
S'/user/youngdun/491WebDev/cse491.env/lib/python2.7/site-packages/quixote/errors'
p366
sg12
g13
(g14
g15
NtRp367
(dp368
g18
I1
sg19
I0
sg20
I68
sg21
I0
sg22
I0
sg23
I27
sg24
I0
sbssg25
S'G\x1e\xda\x03\x9c\xc3\x86\xa7\x10\x04\xb9\x15\x7f\xae\xfc\xf5'
p369
ssS'server'
p370
(dp371
g6
(dp372
g8
S'server.html'
p373
sg10
g370
sg12
g13
(g14
g15
NtRp374
(dp375
g18
I1
sg19
I0
sg20
I82
sg21
I0
sg22
I0
sg23
I15
sg24
I0
sbssg25
S'\xfd\x11\xbeg+qy\xf3\x00(>\xe1B\x07\x96\xdf'
p376
ssS'_user_youngdun_491WebDev_cse491_env_lib_python2_7_site-packages_jinja2_loaders'
p377
(dp378
g6
(dp379
g8
S'_user_youngdun_491WebDev_cse491_env_lib_python2_7_site-packages_jinja2_loaders.html'
p380
sg10
S'/user/youngdun/491WebDev/cse491.env/lib/python2.7/site-packages/jinja2/loaders'
p381
sg12
g13
(g14
g15
NtRp382
(dp383
g18
I1
sg19
I0
sg20
I221
sg21
I0
sg22
I0
sg23
I136
sg24
I0
sbssg25
S'\x83&\xd8\xa0D\xd5\xfe\xbf\xb7@\xe28D\xf6\xc7]'
p384
ssS'_user_youngdun_491WebDev_cse491_env_lib_python2_7_site-packages_quixote_config'
p385
(dp386
g6
(dp387
g8
S'_user_youngdun_491WebDev_cse491_env_lib_python2_7_site-packages_quixote_config.html'
p388
sg10
S'/user/youngdun/491WebDev/cse491.env/lib/python2.7/site-packages/quixote/config'
p389
sg12
g13
(g14
g15
NtRp390
(dp391
g18
I1
sg19
I0
sg20
I39
sg21
I0
sg22
I0
sg23
I19
sg24
I0
sbssg25
S'^\xa0`>\xdeK\xdfn$P{\xf3\xc5$\xff\x12'
p392
ssS'_user_youngdun_491WebDev_cse491_env_lib_python2_7_site-packages_nose_case'
p393
(dp394
g6
(dp395
g8
S'_user_youngdun_491WebDev_cse491_env_lib_python2_7_site-packages_nose_case.html'
p396
sg10
S'/user/youngdun/491WebDev/cse491.env/lib/python2.7/site-packages/nose/case'
p397
sg12
g13
(g14
g15
NtRp398
(dp399
g18
I1
sg19
I0
sg20
I204
sg21
I0
sg22
I0
sg23
I163
sg24
I0
sbssg25
S'\xedk3\xdb{\xf7\x95\xec\xcf\x98\xf2\xad46\xa7\xae'
p400
ssS'test_server'
p401
(dp402
g6
(dp403
g8
S'test_server.html'
p404
sg10
g401
sg12
g13
(g14
g15
NtRp405
(dp406
g18
I1
sg19
I0
sg20
I75
sg21
I0
sg22
I0
sg23
I4
sg24
I0
sbssg25
S">\xbe\xd9\x08\xf9'?\x01Z\xacw\x82\x82\xbdg5"
p407
ssS'_user_youngdun_491WebDev_cse491_env_lib_python2_7_site-packages_nose_plugins_manager'
p408
(dp409
g6
(dp410
g8
S'_user_youngdun_491WebDev_cse491_env_lib_python2_7_site-packages_nose_plugins_manager.html'
p411
sg10
S'/user/youngdun/491WebDev/cse491.env/lib/python2.7/site-packages/nose/plugins/manager'
p412
sg12
g13
(g14
g15
NtRp413
(dp414
g18
I1
sg19
I0
sg20
I265
sg21
I0
sg22
I0
sg23
I234
sg24
I0
sbssg25
S"\x06\x86\xacD~?\xc2d\x08C\xd2'xe5\xf8"
p415
ssS'_user_youngdun_491WebDev_cse491_env_lib_python2_7_site-packages_markupsafe___init__'
p416
(dp417
g6
(dp418
g8
S'_user_youngdun_491WebDev_cse491_env_lib_python2_7_site-packages_markupsafe___init__.html'
p419
sg10
S'/user/youngdun/491WebDev/cse491.env/lib/python2.7/site-packages/markupsafe/__init__'
p420
sg12
g13
(g14
g15
NtRp421
(dp422
g18
I1
sg19
I0
sg20
I112
sg21
I0
sg22
I0
sg23
I58
sg24
I0
sbssg25
S'4\x0c\xad\x16\xa7a\x86\xb4\x07\xack\x85\xc1\xe3\xd5\xd3'
p423
ssS'_user_youngdun_491WebDev_cse491_env_lib_python2_7_site-packages_jinja2_defaults'
p424
(dp425
g6
(dp426
g8
S'_user_youngdun_491WebDev_cse491_env_lib_python2_7_site-packages_jinja2_defaults.html'
p427
sg10
S'/user/youngdun/491WebDev/cse491.env/lib/python2.7/site-packages/jinja2/defaults'
p428
sg12
g13
(g14
g15
NtRp429
(dp430
g18
I1
sg19
I0
sg20
I19
sg21
I0
sg22
I0
sg23
I0
sg24
I0
sbssg25
S'\xe2s1\x07\x11\xcc\xb8t@\xa5n<\x98\x97"j'
p431
sssS'version'
p432
S'3.7.1'
p433
sS'settings'
p434
S'\x98\xa8x\xfe"r\xb5K\x98\xb1N\\\x99\x9e\xf3\xe5'
p435
sS'format'
p436
I1
s.